target datalayout = "e-m:e-p270:32:32-p271:32:32-p272:64:64-i64:64-i128:128-f80:128-n8:16:32:64-S128"
target triple = "x86_64-pc-linux-gnu"

%class.Sample = type { ptr, ptr, ptr, ptr, ptr, i8, float, float, float, float, float, float, float, float, float, float, float, float, float, i32, i8, i8, i8, ptr, [9 x ptr], ptr, %class.SampleDebugDraw }
%class.SampleDebugDraw = type { %class.DebugDrawGL }
%class.DebugDrawGL = type { %struct.duDebugDraw }
%struct.duDebugDraw = type { ptr }
%class.Sample_TempObstacles = type <{ %class.Sample, i8, [7 x i8], ptr, ptr, ptr, ptr, float, i32, i32, i32, i32, i32, i32, i32, float, [4 x i8] }>

; Function Attrs: mustprogress uwtable
define dso_local void @_ZN20Sample_TempObstacles18removeTempObstacleEPKfS1_(ptr noundef nonnull align 8 dereferenceable(276) %0, ptr noundef %1, ptr noundef %2) #5 align 2 {
  %4 = alloca ptr, align 8
  %5 = alloca ptr, align 8
  %6 = alloca ptr, align 8
  %7 = alloca i32, align 4
  store ptr %0, ptr %4, align 8
  store ptr %1, ptr %5, align 8
  store ptr %2, ptr %6, align 8
  %8 = load ptr, ptr %4, align 8
  %9 = getelementptr inbounds %class.Sample_TempObstacles, ptr %8, i32 0, i32 6
  %10 = load ptr, ptr %9, align 8
  %11 = icmp ne ptr %10, null
  br i1 %11, label %13, label %12

12:                                               ; preds = %3
  br label %23

13:                                               ; preds = %3
  %14 = getelementptr inbounds %class.Sample_TempObstacles, ptr %8, i32 0, i32 6
  %15 = load ptr, ptr %14, align 8
  %16 = load ptr, ptr %5, align 8
  %17 = load ptr, ptr %6, align 8
  %18 = call noundef i32 @_Z15hitTestObstaclePK11dtTileCachePKfS3_(ptr noundef %15, ptr noundef %16, ptr noundef %17)
  store i32 %18, ptr %7, align 4
  %19 = getelementptr inbounds %class.Sample_TempObstacles, ptr %8, i32 0, i32 6
  %20 = load ptr, ptr %19, align 8
  %21 = load i32, ptr %7, align 4
  %22 = call noundef i32 @_ZN11dtTileCache14removeObstacleEj(ptr noundef nonnull align 8 dereferenceable(912) %20, i32 noundef %21)
  br label %23

23:                                               ; preds = %13, %12
  ret void
}