; Function Attrs: mustprogress uwtable
define dso_local void @_ZN20Sample_TempObstacles18removeTempObstacleEPKfS1_(ptr nocapture noundef nonnull readonly align 8 dereferenceable(276) %0, ptr nocapture noundef readonly %1, ptr nocapture noundef readonly %2) local_unnamed_addr #5 align 2 {
  %4 = getelementptr inbounds i8, ptr %0, i64 232
  %5 = load ptr, ptr %4, align 8
  %.not = icmp eq ptr %5, null
  br i1 %.not, label %10, label %6

6:                                                ; preds = %3
  %7 = tail call noundef i32 @_Z15hitTestObstaclePK11dtTileCachePKfS3_(ptr noundef nonnull %5, ptr noundef %1, ptr noundef %2)
  %8 = load ptr, ptr %4, align 8
  %9 = tail call noundef i32 @_ZN11dtTileCache14removeObstacleEj(ptr noundef nonnull align 8 dereferenceable(912) %8, i32 noundef %7)
  br label %10

10:                                               ; preds = %3, %6
  ret void
}